; ModuleID = '23/199.c'
source_filename = "23/199.c"
target datalayout = "e-m:e-p270:32:32-p271:32:32-p272:64:64-i64:64-f80:128-n8:16:32:64-S128"
target triple = "x86_64-pc-linux-gnu"

@.str = private unnamed_addr constant [3 x i8] c"%s\00", align 1

; Function Attrs: noinline nounwind uwtable
define dso_local i32 @main() #0 {
  %1 = alloca i32, align 4
  %2 = alloca i32, align 4
  %3 = alloca i32, align 4
  %4 = alloca i32, align 4
  %5 = alloca [101 x i8], align 16
  %6 = alloca [10 x [100 x i8]], align 16
  store i32 0, i32* %1, align 4
  %7 = getelementptr inbounds [101 x i8], [101 x i8]* %5, i64 0, i64 0
  %8 = call i32 (i8*, ...) bitcast (i32 (...)* @gets to i32 (i8*, ...)*)(i8* %7)
  store i32 0, i32* %4, align 4
  store i32 0, i32* %3, align 4
  store i32 0, i32* %2, align 4
  br label %9

9:                                                ; preds = %79, %0
  %10 = load i32, i32* %2, align 4
  %11 = sext i32 %10 to i64
  %12 = getelementptr inbounds [101 x i8], [101 x i8]* %5, i64 0, i64 %11
  %13 = load i8, i8* %12, align 1
  %14 = sext i8 %13 to i32
  %15 = icmp ne i32 %14, 0
  br i1 %15, label %16, label %88

16:                                               ; preds = %9
  br label %17

17:                                               ; preds = %33, %16
  %18 = load i32, i32* %2, align 4
  %19 = sext i32 %18 to i64
  %20 = getelementptr inbounds [101 x i8], [101 x i8]* %5, i64 0, i64 %19
  %21 = load i8, i8* %20, align 1
  %22 = sext i8 %21 to i32
  %23 = icmp ne i32 %22, 32
  br i1 %23, label %24, label %31

24:                                               ; preds = %17
  %25 = load i32, i32* %2, align 4
  %26 = sext i32 %25 to i64
  %27 = getelementptr inbounds [101 x i8], [101 x i8]* %5, i64 0, i64 %26
  %28 = load i8, i8* %27, align 1
  %29 = sext i8 %28 to i32
  %30 = icmp ne i32 %29, 0
  br label %31

31:                                               ; preds = %24, %17
  %32 = phi i1 [ false, %17 ], [ %30, %24 ]
  br i1 %32, label %33, label %48

33:                                               ; preds = %31
  %34 = load i32, i32* %2, align 4
  %35 = sext i32 %34 to i64
  %36 = getelementptr inbounds [101 x i8], [101 x i8]* %5, i64 0, i64 %35
  %37 = load i8, i8* %36, align 1
  %38 = load i32, i32* %3, align 4
  %39 = sext i32 %38 to i64
  %40 = getelementptr inbounds [10 x [100 x i8]], [10 x [100 x i8]]* %6, i64 0, i64 %39
  %41 = load i32, i32* %4, align 4
  %42 = sext i32 %41 to i64
  %43 = getelementptr inbounds [100 x i8], [100 x i8]* %40, i64 0, i64 %42
  store i8 %37, i8* %43, align 1
  %44 = load i32, i32* %2, align 4
  %45 = add nsw i32 %44, 1
  store i32 %45, i32* %2, align 4
  %46 = load i32, i32* %4, align 4
  %47 = add nsw i32 %46, 1
  store i32 %47, i32* %4, align 4
  br label %17

48:                                               ; preds = %31
  %49 = load i32, i32* %3, align 4
  %50 = sext i32 %49 to i64
  %51 = getelementptr inbounds [10 x [100 x i8]], [10 x [100 x i8]]* %6, i64 0, i64 %50
  %52 = load i32, i32* %4, align 4
  %53 = sext i32 %52 to i64
  %54 = getelementptr inbounds [100 x i8], [100 x i8]* %51, i64 0, i64 %53
  store i8 0, i8* %54, align 1
  %55 = load i32, i32* %3, align 4
  %56 = add nsw i32 %55, 1
  store i32 %56, i32* %3, align 4
  store i32 0, i32* %4, align 4
  br label %57

57:                                               ; preds = %64, %48
  %58 = load i32, i32* %2, align 4
  %59 = sext i32 %58 to i64
  %60 = getelementptr inbounds [101 x i8], [101 x i8]* %5, i64 0, i64 %59
  %61 = load i8, i8* %60, align 1
  %62 = sext i8 %61 to i32
  %63 = icmp eq i32 %62, 32
  br i1 %63, label %64, label %79

64:                                               ; preds = %57
  %65 = load i32, i32* %2, align 4
  %66 = sext i32 %65 to i64
  %67 = getelementptr inbounds [101 x i8], [101 x i8]* %5, i64 0, i64 %66
  %68 = load i8, i8* %67, align 1
  %69 = load i32, i32* %3, align 4
  %70 = sext i32 %69 to i64
  %71 = getelementptr inbounds [10 x [100 x i8]], [10 x [100 x i8]]* %6, i64 0, i64 %70
  %72 = load i32, i32* %4, align 4
  %73 = sext i32 %72 to i64
  %74 = getelementptr inbounds [100 x i8], [100 x i8]* %71, i64 0, i64 %73
  store i8 %68, i8* %74, align 1
  %75 = load i32, i32* %4, align 4
  %76 = add nsw i32 %75, 1
  store i32 %76, i32* %4, align 4
  %77 = load i32, i32* %2, align 4
  %78 = add nsw i32 %77, 1
  store i32 %78, i32* %2, align 4
  br label %57

79:                                               ; preds = %57
  %80 = load i32, i32* %3, align 4
  %81 = sext i32 %80 to i64
  %82 = getelementptr inbounds [10 x [100 x i8]], [10 x [100 x i8]]* %6, i64 0, i64 %81
  %83 = load i32, i32* %4, align 4
  %84 = sext i32 %83 to i64
  %85 = getelementptr inbounds [100 x i8], [100 x i8]* %82, i64 0, i64 %84
  store i8 0, i8* %85, align 1
  %86 = load i32, i32* %3, align 4
  %87 = add nsw i32 %86, 1
  store i32 %87, i32* %3, align 4
  store i32 0, i32* %4, align 4
  br label %9

88:                                               ; preds = %9
  %89 = load i32, i32* %3, align 4
  %90 = sub nsw i32 %89, 1
  store i32 %90, i32* %2, align 4
  br label %91

91:                                               ; preds = %100, %88
  %92 = load i32, i32* %2, align 4
  %93 = icmp sge i32 %92, 0
  br i1 %93, label %94, label %103

94:                                               ; preds = %91
  %95 = load i32, i32* %2, align 4
  %96 = sext i32 %95 to i64
  %97 = getelementptr inbounds [10 x [100 x i8]], [10 x [100 x i8]]* %6, i64 0, i64 %96
  %98 = getelementptr inbounds [100 x i8], [100 x i8]* %97, i64 0, i64 0
  %99 = call i32 (i8*, ...) @printf(i8* getelementptr inbounds ([3 x i8], [3 x i8]* @.str, i64 0, i64 0), i8* %98)
  br label %100

100:                                              ; preds = %94
  %101 = load i32, i32* %2, align 4
  %102 = add nsw i32 %101, -1
  store i32 %102, i32* %2, align 4
  br label %91

103:                                              ; preds = %91
  ret i32 0
}

declare dso_local i32 @gets(...) #1

declare dso_local i32 @printf(i8*, ...) #1


!llvm.module.flags = !{!0}
!llvm.ident = !{!1}

!0 = !{i32 1, !"wchar_size", i32 4}
!1 = !{!"clang version 10.0.0-4ubuntu1 "}
